; Function Attrs: nounwind uwtable
define hidden zeroext i1 @SDL_SetWindowProgressState_REAL(ptr noundef %0, i32 noundef %1) local_unnamed_addr #0 {
  %3 = load ptr, ptr @_this, align 8
  %.not = icmp eq ptr %3, null
  br i1 %.not, label %4, label %6

4:                                                ; preds = %2
  %5 = tail call zeroext i1 (ptr, ...) @SDL_SetError_REAL(ptr noundef nonnull @.str.1) #19
  br label %27

6:                                                ; preds = %2
  %7 = tail call zeroext i1 @SDL_ObjectValid(ptr noundef %0, i32 noundef 1) #19
  br i1 %7, label %10, label %8

8:                                                ; preds = %6
  %9 = tail call zeroext i1 (ptr, ...) @SDL_SetError_REAL(ptr noundef nonnull @.str.20) #19
  br label %27

10:                                               ; preds = %6
  %11 = getelementptr inbounds nuw i8, ptr %0, i64 72
  %12 = load i64, ptr %11, align 8
  %13 = and i64 %12, 786432
  %.not10 = icmp eq i64 %13, 0
  br i1 %.not10, label %16, label %14

14:                                               ; preds = %10
  %15 = tail call zeroext i1 (ptr, ...) @SDL_SetError_REAL(ptr noundef nonnull @.str.22) #19
  br label %27

16:                                               ; preds = %10
  %or.cond = icmp ugt i32 %1, 4
  br i1 %or.cond, label %17, label %19

17:                                               ; preds = %16
  %18 = tail call zeroext i1 (ptr, ...) @SDL_SetError_REAL(ptr noundef nonnull @.str.2, ptr noundef nonnull @.str.58) #19
  br label %27

19:                                               ; preds = %16
  %20 = getelementptr inbounds nuw i8, ptr %0, i64 368
  store i32 %1, ptr %20, align 8
  %21 = load ptr, ptr @_this, align 8
  %22 = getelementptr inbounds nuw i8, ptr %21, i64 376
  %23 = load ptr, ptr %22, align 8
  %.not11 = icmp eq ptr %23, null
  br i1 %.not11, label %26, label %24

24:                                               ; preds = %19
  %25 = tail call zeroext i1 %23(ptr noundef nonnull %21, ptr noundef nonnull %0) #19
  br i1 %25, label %26, label %27

26:                                               ; preds = %24, %19
  br label %27

27:                                               ; preds = %24, %26, %17, %14, %8, %4
  %.0 = phi i1 [ false, %14 ], [ %18, %17 ], [ true, %26 ], [ false, %8 ], [ false, %4 ], [ false, %24 ]
  ret i1 %.0
}